; Function Attrs: nounwind uwtable
define i32 @If_DsdManCheckXY(ptr noundef %0, i32 noundef %1, i32 noundef %2, i32 noundef %3, i32 noundef %4, i32 noundef %5, i32 noundef %6) local_unnamed_addr #4 {
  %8 = alloca i32, align 4
  %9 = tail call i32 @If_DsdManCheckXY_int(ptr noundef %0, i32 noundef %1, i32 noundef %2, i32 noundef %3, i32 noundef %4, i32 noundef %6)
  %10 = icmp eq i32 %9, 0
  %11 = icmp ne i32 %5, 0
  %or.cond = and i1 %11, %10
  br i1 %or.cond, label %12, label %60

12:                                               ; preds = %7
  %13 = getelementptr i8, ptr %0, i64 48
  %.val = load ptr, ptr %13, align 8, !tbaa !23
  %14 = ashr i32 %1, 1
  %15 = sext i32 %14 to i64
  %16 = getelementptr inbounds ptr, ptr %.val, i64 %15
  %17 = load ptr, ptr %16, align 8, !tbaa !24
  %18 = getelementptr inbounds nuw i8, ptr %17, i64 4
  %19 = load i32, ptr %18, align 4
  %20 = lshr i32 %19, 3
  %21 = and i32 %20, 31
  %22 = getelementptr inbounds nuw i8, ptr %0, i64 104
  %23 = load ptr, ptr %22, align 8, !tbaa !55
  %24 = getelementptr inbounds nuw i8, ptr %23, i64 96
  %25 = load ptr, ptr %24, align 8, !tbaa !49
  call void @llvm.lifetime.start.p0(i64 4, ptr nonnull %8) #39
  store i32 0, ptr %8, align 4, !tbaa !40
  switch i32 %1, label %38 [
    i32 0, label %26
    i32 1, label %32
  ]

26:                                               ; preds = %12
  %27 = getelementptr inbounds nuw i8, ptr %0, i64 16
  %28 = load i32, ptr %27, align 8, !tbaa !41
  %29 = icmp sgt i32 %28, 0
  br i1 %29, label %.lr.ph.preheader.i.i, label %If_DsdManComputeTruthPtr.exit

.lr.ph.preheader.i.i:                             ; preds = %26
  %30 = zext nneg i32 %28 to i64
  %31 = shl nuw nsw i64 %30, 3
  tail call void @llvm.memset.p0.i64(ptr align 8 %25, i8 0, i64 %31, i1 false), !tbaa !51
  br label %If_DsdManComputeTruthPtr.exit

32:                                               ; preds = %12
  %33 = getelementptr inbounds nuw i8, ptr %0, i64 16
  %34 = load i32, ptr %33, align 8, !tbaa !41
  %35 = icmp sgt i32 %34, 0
  br i1 %35, label %.lr.ph.preheader.i21.i, label %If_DsdManComputeTruthPtr.exit

.lr.ph.preheader.i21.i:                           ; preds = %32
  %36 = zext nneg i32 %34 to i64
  %37 = shl nuw nsw i64 %36, 3
  tail call void @llvm.memset.p0.i64(ptr align 8 %25, i8 -1, i64 %37, i1 false), !tbaa !51
  br label %If_DsdManComputeTruthPtr.exit

38:                                               ; preds = %12
  %39 = and i32 %19, 7
  %40 = icmp eq i32 %39, 2
  br i1 %40, label %41, label %54

41:                                               ; preds = %38
  %42 = load ptr, ptr %23, align 8, !tbaa !49
  %43 = getelementptr inbounds nuw i8, ptr %0, i64 16
  %44 = load i32, ptr %43, align 8, !tbaa !41
  %45 = and i32 %1, 1
  %.not.i.i = icmp eq i32 %45, 0
  %46 = icmp sgt i32 %44, 0
  br i1 %.not.i.i, label %.preheader.i.i, label %.preheader14.i.i

.preheader14.i.i:                                 ; preds = %41
  br i1 %46, label %.lr.ph.preheader.i22.i, label %If_DsdManComputeTruthPtr.exit

.lr.ph.preheader.i22.i:                           ; preds = %.preheader14.i.i
  %wide.trip.count.i.i = zext nneg i32 %44 to i64
  br label %.lr.ph.i.i

.preheader.i.i:                                   ; preds = %41
  br i1 %46, label %.lr.ph18.preheader.i.i, label %If_DsdManComputeTruthPtr.exit

.lr.ph18.preheader.i.i:                           ; preds = %.preheader.i.i
  %wide.trip.count24.i.i = zext nneg i32 %44 to i64
  br label %.lr.ph18.i.i

.lr.ph.i.i:                                       ; preds = %.lr.ph.i.i, %.lr.ph.preheader.i22.i
  %indvars.iv.i.i = phi i64 [ 0, %.lr.ph.preheader.i22.i ], [ %indvars.iv.next.i.i, %.lr.ph.i.i ]
  %47 = getelementptr inbounds nuw i64, ptr %42, i64 %indvars.iv.i.i
  %48 = load i64, ptr %47, align 8, !tbaa !51
  %49 = xor i64 %48, -1
  %50 = getelementptr inbounds nuw i64, ptr %25, i64 %indvars.iv.i.i
  store i64 %49, ptr %50, align 8, !tbaa !51
  %indvars.iv.next.i.i = add nuw nsw i64 %indvars.iv.i.i, 1
  %exitcond.not.i.i = icmp eq i64 %indvars.iv.next.i.i, %wide.trip.count.i.i
  br i1 %exitcond.not.i.i, label %If_DsdManComputeTruthPtr.exit, label %.lr.ph.i.i, !llvm.loop !163

.lr.ph18.i.i:                                     ; preds = %.lr.ph18.i.i, %.lr.ph18.preheader.i.i
  %indvars.iv21.i.i = phi i64 [ 0, %.lr.ph18.preheader.i.i ], [ %indvars.iv.next22.i.i, %.lr.ph18.i.i ]
  %51 = getelementptr inbounds nuw i64, ptr %42, i64 %indvars.iv21.i.i
  %52 = load i64, ptr %51, align 8, !tbaa !51
  %53 = getelementptr inbounds nuw i64, ptr %25, i64 %indvars.iv21.i.i
  store i64 %52, ptr %53, align 8, !tbaa !51
  %indvars.iv.next22.i.i = add nuw nsw i64 %indvars.iv21.i.i, 1
  %exitcond25.not.i.i = icmp eq i64 %indvars.iv.next22.i.i, %wide.trip.count24.i.i
  br i1 %exitcond25.not.i.i, label %If_DsdManComputeTruthPtr.exit, label %.lr.ph18.i.i, !llvm.loop !134

54:                                               ; preds = %38
  call void @If_DsdManComputeTruth_rec(ptr noundef nonnull %0, i32 noundef %1, ptr noundef %25, ptr noundef null, ptr noundef nonnull %8)
  br label %If_DsdManComputeTruthPtr.exit

If_DsdManComputeTruthPtr.exit:                    ; preds = %.lr.ph.i.i, %.lr.ph18.i.i, %26, %.lr.ph.preheader.i.i, %32, %.lr.ph.preheader.i21.i, %.preheader14.i.i, %.preheader.i.i, %54
  call void @llvm.lifetime.end.p0(i64 4, ptr nonnull %8) #39
  %55 = getelementptr inbounds nuw i8, ptr %0, i64 656
  %56 = load ptr, ptr %55, align 8, !tbaa !70
  %57 = getelementptr inbounds nuw i8, ptr %0, i64 88
  %58 = load ptr, ptr %57, align 8, !tbaa !47
  %59 = call i32 @If_ManSatCheckXYall(ptr noundef %56, i32 noundef %2, ptr noundef %25, i32 noundef %21, ptr noundef %58) #39
  br label %60

60:                                               ; preds = %If_DsdManComputeTruthPtr.exit, %7
  %.0 = phi i32 [ %59, %If_DsdManComputeTruthPtr.exit ], [ %9, %7 ]
  ret i32 %.0
}